target datalayout = "e-m:e-p270:32:32-p271:32:32-p272:64:64-i64:64-i128:128-f80:128-n8:16:32:64-S128"
target triple = "x86_64-pc-linux-gnu"

%struct.re_guts = type { ptr, ptr, ptr, i32, i32, i32, i32, i64, i64, i64, i32, i32, i32, ptr, i32, i32, i64, i64 }
%struct.cset = type { ptr, i8, i8 }

; Function Attrs: nounwind uwtable
define internal i32 @CHIN(ptr noundef %0, i8 noundef signext %1) #0 {
  %3 = alloca ptr, align 8
  %4 = alloca i8, align 1
  store ptr %0, ptr %3, align 8
  store i8 %1, ptr %4, align 1
  %5 = load ptr, ptr %3, align 8
  %6 = getelementptr inbounds %struct.cset, ptr %5, i32 0, i32 0
  %7 = load ptr, ptr %6, align 8
  %8 = load i8, ptr %4, align 1
  %9 = zext i8 %8 to i64
  %10 = getelementptr inbounds i8, ptr %7, i64 %9
  %11 = load i8, ptr %10, align 1
  %12 = zext i8 %11 to i32
  %13 = load ptr, ptr %3, align 8
  %14 = getelementptr inbounds %struct.cset, ptr %13, i32 0, i32 1
  %15 = load i8, ptr %14, align 8
  %16 = zext i8 %15 to i32
  %17 = and i32 %12, %16
  %18 = icmp ne i32 %17, 0
  %19 = zext i1 %18 to i32
  ret i32 %19
}

; Function Attrs: nounwind uwtable
define internal i64 @sstep(ptr noundef %0, i64 noundef %1, i64 noundef %2, i64 noundef %3, i32 noundef %4, i64 noundef %5) #0 {
  %7 = alloca ptr, align 8
  %8 = alloca i64, align 8
  %9 = alloca i64, align 8
  %10 = alloca i64, align 8
  %11 = alloca i32, align 4
  %12 = alloca i64, align 8
  %13 = alloca ptr, align 8
  %14 = alloca i64, align 8
  %15 = alloca i64, align 8
  %16 = alloca i64, align 8
  %17 = alloca i64, align 8
  %18 = alloca i32, align 4
  store ptr %0, ptr %7, align 8
  store i64 %1, ptr %8, align 8
  store i64 %2, ptr %9, align 8
  store i64 %3, ptr %10, align 8
  store i32 %4, ptr %11, align 4
  store i64 %5, ptr %12, align 8
  %19 = load i64, ptr %8, align 8
  store i64 %19, ptr %15, align 8
  %20 = load i64, ptr %15, align 8
  %21 = shl i64 1, %20
  store i64 %21, ptr %16, align 8
  br label %22

22:                                               ; preds = %305, %6
  %23 = load i64, ptr %15, align 8
  %24 = load i64, ptr %9, align 8
  %25 = icmp ne i64 %23, %24
  br i1 %25, label %26, label %310

26:                                               ; preds = %22
  %27 = load ptr, ptr %7, align 8
  %28 = getelementptr inbounds %struct.re_guts, ptr %27, i32 0, i32 0
  %29 = load ptr, ptr %28, align 8
  %30 = load i64, ptr %15, align 8
  %31 = getelementptr inbounds i64, ptr %29, i64 %30
  %32 = load i64, ptr %31, align 8
  store i64 %32, ptr %14, align 8
  %33 = load i64, ptr %14, align 8
  %34 = and i64 %33, 4160749568
  switch i64 %34, label %303 [
    i64 134217728, label %35
    i64 268435456, label %36
    i64 402653184, label %51
    i64 536870912, label %65
    i64 2550136832, label %79
    i64 2684354560, label %90
    i64 671088640, label %101
    i64 805306368, label %112
    i64 939524096, label %135
    i64 1073741824, label %135
    i64 1207959552, label %142
    i64 1342177280, label %149
    i64 1476395008, label %191
    i64 1610612736, label %206
    i64 1744830464, label %213
    i64 1879048192, label %213
    i64 2013265920, label %220
    i64 2147483648, label %235
    i64 2281701376, label %268
    i64 2415919104, label %296
  ]

35:                                               ; preds = %26
  br label %304

36:                                               ; preds = %26
  %37 = load i32, ptr %11, align 4
  %38 = load i64, ptr %14, align 8
  %39 = and i64 %38, 134217727
  %40 = trunc i64 %39 to i8
  %41 = sext i8 %40 to i32
  %42 = icmp eq i32 %37, %41
  br i1 %42, label %43, label %50

43:                                               ; preds = %36
  %44 = load i64, ptr %10, align 8
  %45 = load i64, ptr %16, align 8
  %46 = and i64 %44, %45
  %47 = shl i64 %46, 1
  %48 = load i64, ptr %12, align 8
  %49 = or i64 %48, %47
  store i64 %49, ptr %12, align 8
  br label %50

50:                                               ; preds = %43, %36
  br label %304

51:                                               ; preds = %26
  %52 = load i32, ptr %11, align 4
  %53 = icmp eq i32 %52, 129
  br i1 %53, label %57, label %54

54:                                               ; preds = %51
  %55 = load i32, ptr %11, align 4
  %56 = icmp eq i32 %55, 131
  br i1 %56, label %57, label %64

57:                                               ; preds = %54, %51
  %58 = load i64, ptr %10, align 8
  %59 = load i64, ptr %16, align 8
  %60 = and i64 %58, %59
  %61 = shl i64 %60, 1
  %62 = load i64, ptr %12, align 8
  %63 = or i64 %62, %61
  store i64 %63, ptr %12, align 8
  br label %64

64:                                               ; preds = %57, %54
  br label %304

65:                                               ; preds = %26
  %66 = load i32, ptr %11, align 4
  %67 = icmp eq i32 %66, 130
  br i1 %67, label %71, label %68

68:                                               ; preds = %65
  %69 = load i32, ptr %11, align 4
  %70 = icmp eq i32 %69, 131
  br i1 %70, label %71, label %78

71:                                               ; preds = %68, %65
  %72 = load i64, ptr %10, align 8
  %73 = load i64, ptr %16, align 8
  %74 = and i64 %72, %73
  %75 = shl i64 %74, 1
  %76 = load i64, ptr %12, align 8
  %77 = or i64 %76, %75
  store i64 %77, ptr %12, align 8
  br label %78

78:                                               ; preds = %71, %68
  br label %304

79:                                               ; preds = %26
  %80 = load i32, ptr %11, align 4
  %81 = icmp eq i32 %80, 133
  br i1 %81, label %82, label %89

82:                                               ; preds = %79
  %83 = load i64, ptr %10, align 8
  %84 = load i64, ptr %16, align 8
  %85 = and i64 %83, %84
  %86 = shl i64 %85, 1
  %87 = load i64, ptr %12, align 8
  %88 = or i64 %87, %86
  store i64 %88, ptr %12, align 8
  br label %89

89:                                               ; preds = %82, %79
  br label %304

90:                                               ; preds = %26
  %91 = load i32, ptr %11, align 4
  %92 = icmp eq i32 %91, 134
  br i1 %92, label %93, label %100

93:                                               ; preds = %90
  %94 = load i64, ptr %10, align 8
  %95 = load i64, ptr %16, align 8
  %96 = and i64 %94, %95
  %97 = shl i64 %96, 1
  %98 = load i64, ptr %12, align 8
  %99 = or i64 %98, %97
  store i64 %99, ptr %12, align 8
  br label %100

100:                                              ; preds = %93, %90
  br label %304

101:                                              ; preds = %26
  %102 = load i32, ptr %11, align 4
  %103 = icmp sgt i32 %102, 127
  br i1 %103, label %111, label %104

104:                                              ; preds = %101
  %105 = load i64, ptr %10, align 8
  %106 = load i64, ptr %16, align 8
  %107 = and i64 %105, %106
  %108 = shl i64 %107, 1
  %109 = load i64, ptr %12, align 8
  %110 = or i64 %109, %108
  store i64 %110, ptr %12, align 8
  br label %111

111:                                              ; preds = %104, %101
  br label %304

112:                                              ; preds = %26
  %113 = load ptr, ptr %7, align 8
  %114 = getelementptr inbounds %struct.re_guts, ptr %113, i32 0, i32 1
  %115 = load ptr, ptr %114, align 8
  %116 = load i64, ptr %14, align 8
  %117 = and i64 %116, 134217727
  %118 = getelementptr inbounds %struct.cset, ptr %115, i64 %117
  store ptr %118, ptr %13, align 8
  %119 = load i32, ptr %11, align 4
  %120 = icmp sgt i32 %119, 127
  br i1 %120, label %134, label %121

121:                                              ; preds = %112
  %122 = load ptr, ptr %13, align 8
  %123 = load i32, ptr %11, align 4
  %124 = trunc i32 %123 to i8
  %125 = call i32 @CHIN(ptr noundef %122, i8 noundef signext %124)
  %126 = icmp ne i32 %125, 0
  br i1 %126, label %127, label %134

127:                                              ; preds = %121
  %128 = load i64, ptr %10, align 8
  %129 = load i64, ptr %16, align 8
  %130 = and i64 %128, %129
  %131 = shl i64 %130, 1
  %132 = load i64, ptr %12, align 8
  %133 = or i64 %132, %131
  store i64 %133, ptr %12, align 8
  br label %134

134:                                              ; preds = %127, %121, %112
  br label %304

135:                                              ; preds = %26, %26
  %136 = load i64, ptr %12, align 8
  %137 = load i64, ptr %16, align 8
  %138 = and i64 %136, %137
  %139 = shl i64 %138, 1
  %140 = load i64, ptr %12, align 8
  %141 = or i64 %140, %139
  store i64 %141, ptr %12, align 8
  br label %304

142:                                              ; preds = %26
  %143 = load i64, ptr %12, align 8
  %144 = load i64, ptr %16, align 8
  %145 = and i64 %143, %144
  %146 = shl i64 %145, 1
  %147 = load i64, ptr %12, align 8
  %148 = or i64 %147, %146
  store i64 %148, ptr %12, align 8
  br label %304

149:                                              ; preds = %26
  %150 = load i64, ptr %12, align 8
  %151 = load i64, ptr %16, align 8
  %152 = and i64 %150, %151
  %153 = shl i64 %152, 1
  %154 = load i64, ptr %12, align 8
  %155 = or i64 %154, %153
  store i64 %155, ptr %12, align 8
  %156 = load i64, ptr %12, align 8
  %157 = load i64, ptr %16, align 8
  %158 = load i64, ptr %14, align 8
  %159 = and i64 %158, 134217727
  %160 = lshr i64 %157, %159
  %161 = and i64 %156, %160
  %162 = icmp ne i64 %161, 0
  %163 = zext i1 %162 to i32
  store i32 %163, ptr %18, align 4
  %164 = load i64, ptr %12, align 8
  %165 = load i64, ptr %16, align 8
  %166 = and i64 %164, %165
  %167 = load i64, ptr %14, align 8
  %168 = and i64 %167, 134217727
  %169 = lshr i64 %166, %168
  %170 = load i64, ptr %12, align 8
  %171 = or i64 %170, %169
  store i64 %171, ptr %12, align 8
  %172 = load i32, ptr %18, align 4
  %173 = icmp ne i32 %172, 0
  br i1 %173, label %190, label %174

174:                                              ; preds = %149
  %175 = load i64, ptr %12, align 8
  %176 = load i64, ptr %16, align 8
  %177 = load i64, ptr %14, align 8
  %178 = and i64 %177, 134217727
  %179 = lshr i64 %176, %178
  %180 = and i64 %175, %179
  %181 = icmp ne i64 %180, 0
  br i1 %181, label %182, label %190

182:                                              ; preds = %174
  %183 = load i64, ptr %14, align 8
  %184 = and i64 %183, 134217727
  %185 = add i64 %184, 1
  %186 = load i64, ptr %15, align 8
  %187 = sub i64 %186, %185
  store i64 %187, ptr %15, align 8
  %188 = load i64, ptr %15, align 8
  %189 = shl i64 1, %188
  store i64 %189, ptr %16, align 8
  br label %190

190:                                              ; preds = %182, %174, %149
  br label %304

191:                                              ; preds = %26
  %192 = load i64, ptr %12, align 8
  %193 = load i64, ptr %16, align 8
  %194 = and i64 %192, %193
  %195 = shl i64 %194, 1
  %196 = load i64, ptr %12, align 8
  %197 = or i64 %196, %195
  store i64 %197, ptr %12, align 8
  %198 = load i64, ptr %12, align 8
  %199 = load i64, ptr %16, align 8
  %200 = and i64 %198, %199
  %201 = load i64, ptr %14, align 8
  %202 = and i64 %201, 134217727
  %203 = shl i64 %200, %202
  %204 = load i64, ptr %12, align 8
  %205 = or i64 %204, %203
  store i64 %205, ptr %12, align 8
  br label %304

206:                                              ; preds = %26
  %207 = load i64, ptr %12, align 8
  %208 = load i64, ptr %16, align 8
  %209 = and i64 %207, %208
  %210 = shl i64 %209, 1
  %211 = load i64, ptr %12, align 8
  %212 = or i64 %211, %210
  store i64 %212, ptr %12, align 8
  br label %304

213:                                              ; preds = %26, %26
  %214 = load i64, ptr %12, align 8
  %215 = load i64, ptr %16, align 8
  %216 = and i64 %214, %215
  %217 = shl i64 %216, 1
  %218 = load i64, ptr %12, align 8
  %219 = or i64 %218, %217
  store i64 %219, ptr %12, align 8
  br label %304

220:                                              ; preds = %26
  %221 = load i64, ptr %12, align 8
  %222 = load i64, ptr %16, align 8
  %223 = and i64 %221, %222
  %224 = shl i64 %223, 1
  %225 = load i64, ptr %12, align 8
  %226 = or i64 %225, %224
  store i64 %226, ptr %12, align 8
  %227 = load i64, ptr %12, align 8
  %228 = load i64, ptr %16, align 8
  %229 = and i64 %227, %228
  %230 = load i64, ptr %14, align 8
  %231 = and i64 %230, 134217727
  %232 = shl i64 %229, %231
  %233 = load i64, ptr %12, align 8
  %234 = or i64 %233, %232
  store i64 %234, ptr %12, align 8
  br label %304

235:                                              ; preds = %26
  %236 = load i64, ptr %12, align 8
  %237 = load i64, ptr %16, align 8
  %238 = and i64 %236, %237
  %239 = icmp ne i64 %238, 0
  br i1 %239, label %240, label %267

240:                                              ; preds = %235
  store i64 1, ptr %17, align 8
  br label %241

241:                                              ; preds = %253, %240
  %242 = load ptr, ptr %7, align 8
  %243 = getelementptr inbounds %struct.re_guts, ptr %242, i32 0, i32 0
  %244 = load ptr, ptr %243, align 8
  %245 = load i64, ptr %15, align 8
  %246 = load i64, ptr %17, align 8
  %247 = add nsw i64 %245, %246
  %248 = getelementptr inbounds i64, ptr %244, i64 %247
  %249 = load i64, ptr %248, align 8
  store i64 %249, ptr %14, align 8
  %250 = and i64 %249, 4160749568
  %251 = icmp ne i64 %250, 2415919104
  br i1 %251, label %252, label %258

252:                                              ; preds = %241
  br label %253

253:                                              ; preds = %252
  %254 = load i64, ptr %14, align 8
  %255 = and i64 %254, 134217727
  %256 = load i64, ptr %17, align 8
  %257 = add i64 %256, %255
  store i64 %257, ptr %17, align 8
  br label %241

258:                                              ; preds = %241
  %259 = load i64, ptr %12, align 8
  %260 = load i64, ptr %16, align 8
  %261 = and i64 %259, %260
  %262 = load i64, ptr %17, align 8
  %263 = add nsw i64 %262, 1
  %264 = shl i64 %261, %263
  %265 = load i64, ptr %12, align 8
  %266 = or i64 %265, %264
  store i64 %266, ptr %12, align 8
  br label %267

267:                                              ; preds = %258, %235
  br label %304

268:                                              ; preds = %26
  %269 = load i64, ptr %12, align 8
  %270 = load i64, ptr %16, align 8
  %271 = and i64 %269, %270
  %272 = shl i64 %271, 1
  %273 = load i64, ptr %12, align 8
  %274 = or i64 %273, %272
  store i64 %274, ptr %12, align 8
  %275 = load ptr, ptr %7, align 8
  %276 = getelementptr inbounds %struct.re_guts, ptr %275, i32 0, i32 0
  %277 = load ptr, ptr %276, align 8
  %278 = load i64, ptr %15, align 8
  %279 = load i64, ptr %14, align 8
  %280 = and i64 %279, 134217727
  %281 = add i64 %278, %280
  %282 = getelementptr inbounds i64, ptr %277, i64 %281
  %283 = load i64, ptr %282, align 8
  %284 = and i64 %283, 4160749568
  %285 = icmp ne i64 %284, 2415919104
  br i1 %285, label %286, label %295

286:                                              ; preds = %268
  %287 = load i64, ptr %12, align 8
  %288 = load i64, ptr %16, align 8
  %289 = and i64 %287, %288
  %290 = load i64, ptr %14, align 8
  %291 = and i64 %290, 134217727
  %292 = shl i64 %289, %291
  %293 = load i64, ptr %12, align 8
  %294 = or i64 %293, %292
  store i64 %294, ptr %12, align 8
  br label %295

295:                                              ; preds = %286, %268
  br label %304

296:                                              ; preds = %26
  %297 = load i64, ptr %12, align 8
  %298 = load i64, ptr %16, align 8
  %299 = and i64 %297, %298
  %300 = shl i64 %299, 1
  %301 = load i64, ptr %12, align 8
  %302 = or i64 %301, %300
  store i64 %302, ptr %12, align 8
  br label %304

303:                                              ; preds = %26
  br label %304

304:                                              ; preds = %303, %296, %295, %267, %220, %213, %206, %191, %190, %142, %135, %134, %111, %100, %89, %78, %64, %50, %35
  br label %305

305:                                              ; preds = %304
  %306 = load i64, ptr %15, align 8
  %307 = add nsw i64 %306, 1
  store i64 %307, ptr %15, align 8
  %308 = load i64, ptr %16, align 8
  %309 = shl i64 %308, 1
  store i64 %309, ptr %16, align 8
  br label %22

310:                                              ; preds = %22
  %311 = load i64, ptr %12, align 8
  ret i64 %311
}