; Function Attrs: nofree norecurse nosync nounwind memory(read, inaccessiblemem: none) uwtable
define internal fastcc i64 @sstep(ptr nocapture noundef readonly %0, i64 noundef %1, i64 noundef %2, i64 noundef %3, i32 noundef %4, i64 noundef %5) unnamed_addr #8 {
  %.not132 = icmp eq i64 %1, %2
  br i1 %.not132, label %._crit_edge138, label %.lr.ph137

.lr.ph137:                                        ; preds = %6
  %7 = shl nuw i64 1, %1
  %8 = load ptr, ptr %0, align 8
  %9 = icmp sgt i32 %4, 127
  %10 = getelementptr inbounds i8, ptr %0, i64 8
  %11 = and i32 %4, 255
  %12 = zext nneg i32 %11 to i64
  %13 = icmp eq i32 %4, 134
  %14 = icmp eq i32 %4, 133
  %15 = and i32 %4, -2
  %or.cond3 = icmp eq i32 %15, 130
  %16 = and i32 %4, -3
  %or.cond = icmp eq i32 %16, 129
  br label %17

17:                                               ; preds = %.lr.ph137, %145
  %.0135 = phi i64 [ %5, %.lr.ph137 ], [ %.1, %145 ]
  %.0115134 = phi i64 [ %7, %.lr.ph137 ], [ %147, %145 ]
  %.0117133 = phi i64 [ %1, %.lr.ph137 ], [ %146, %145 ]
  %18 = getelementptr inbounds i64, ptr %8, i64 %.0117133
  %19 = load i64, ptr %18, align 8
  %20 = and i64 %19, 4160749568
  %21 = add nsw i64 %20, -134217728
  %22 = lshr exact i64 %21, 27
  switch i64 %22, label %145 [
    i64 17, label %141
    i64 1, label %23
    i64 2, label %31
    i64 3, label %36
    i64 18, label %41
    i64 19, label %46
    i64 4, label %51
    i64 5, label %56
    i64 6, label %69
    i64 7, label %69
    i64 8, label %73
    i64 9, label %77
    i64 10, label %91
    i64 11, label %99
    i64 12, label %103
    i64 13, label %103
    i64 14, label %107
    i64 15, label %115
    i64 16, label %129
  ]

23:                                               ; preds = %17
  %24 = trunc i64 %19 to i32
  %sext = shl i32 %24, 24
  %25 = ashr exact i32 %sext, 24
  %26 = icmp eq i32 %25, %4
  br i1 %26, label %27, label %145

27:                                               ; preds = %23
  %28 = and i64 %.0115134, %3
  %29 = shl i64 %28, 1
  %30 = or i64 %29, %.0135
  br label %145

31:                                               ; preds = %17
  br i1 %or.cond, label %32, label %145

32:                                               ; preds = %31
  %33 = and i64 %.0115134, %3
  %34 = shl i64 %33, 1
  %35 = or i64 %34, %.0135
  br label %145

36:                                               ; preds = %17
  br i1 %or.cond3, label %37, label %145

37:                                               ; preds = %36
  %38 = and i64 %.0115134, %3
  %39 = shl i64 %38, 1
  %40 = or i64 %39, %.0135
  br label %145

41:                                               ; preds = %17
  br i1 %14, label %42, label %145

42:                                               ; preds = %41
  %43 = and i64 %.0115134, %3
  %44 = shl i64 %43, 1
  %45 = or i64 %44, %.0135
  br label %145

46:                                               ; preds = %17
  br i1 %13, label %47, label %145

47:                                               ; preds = %46
  %48 = and i64 %.0115134, %3
  %49 = shl i64 %48, 1
  %50 = or i64 %49, %.0135
  br label %145

51:                                               ; preds = %17
  br i1 %9, label %145, label %52

52:                                               ; preds = %51
  %53 = and i64 %.0115134, %3
  %54 = shl i64 %53, 1
  %55 = or i64 %54, %.0135
  br label %145

56:                                               ; preds = %17
  br i1 %9, label %145, label %57

57:                                               ; preds = %56
  %58 = load ptr, ptr %10, align 8
  %59 = and i64 %19, 134217727
  %60 = getelementptr inbounds %struct.cset, ptr %58, i64 %59
  %.val = load ptr, ptr %60, align 8
  %61 = getelementptr i8, ptr %60, i64 8
  %.val128 = load i8, ptr %61, align 8
  %62 = getelementptr inbounds i8, ptr %.val, i64 %12
  %63 = load i8, ptr %62, align 1
  %64 = and i8 %63, %.val128
  %.not129 = icmp eq i8 %64, 0
  br i1 %.not129, label %145, label %65

65:                                               ; preds = %57
  %66 = and i64 %.0115134, %3
  %67 = shl i64 %66, 1
  %68 = or i64 %67, %.0135
  br label %145

69:                                               ; preds = %17, %17
  %70 = and i64 %.0135, %.0115134
  %71 = shl i64 %70, 1
  %72 = or i64 %71, %.0135
  br label %145

73:                                               ; preds = %17
  %74 = and i64 %.0135, %.0115134
  %75 = shl i64 %74, 1
  %76 = or i64 %75, %.0135
  br label %145

77:                                               ; preds = %17
  %78 = and i64 %.0135, %.0115134
  %79 = shl i64 %78, 1
  %80 = or i64 %79, %.0135
  %81 = and i64 %19, 134217727
  %82 = lshr i64 %.0115134, %81
  %83 = and i64 %82, %80
  %.not124 = icmp ne i64 %83, 0
  %84 = and i64 %80, %.0115134
  %85 = lshr i64 %84, %81
  %86 = or i64 %85, %80
  %87 = and i64 %86, %82
  %.not125 = icmp eq i64 %87, 0
  %or.cond127 = select i1 %.not124, i1 true, i1 %.not125
  br i1 %or.cond127, label %145, label %88

88:                                               ; preds = %77
  %.neg = xor i64 %81, -1
  %89 = add i64 %.0117133, %.neg
  %90 = shl nuw i64 1, %89
  br label %145

91:                                               ; preds = %17
  %92 = and i64 %.0135, %.0115134
  %93 = shl i64 %92, 1
  %94 = or i64 %93, %.0135
  %95 = and i64 %94, %.0115134
  %96 = and i64 %19, 134217727
  %97 = shl i64 %95, %96
  %98 = or i64 %97, %94
  br label %145

99:                                               ; preds = %17
  %100 = and i64 %.0135, %.0115134
  %101 = shl i64 %100, 1
  %102 = or i64 %101, %.0135
  br label %145

103:                                              ; preds = %17, %17
  %104 = and i64 %.0135, %.0115134
  %105 = shl i64 %104, 1
  %106 = or i64 %105, %.0135
  br label %145

107:                                              ; preds = %17
  %108 = and i64 %.0135, %.0115134
  %109 = shl i64 %108, 1
  %110 = or i64 %109, %.0135
  %111 = and i64 %110, %.0115134
  %112 = and i64 %19, 134217727
  %113 = shl i64 %111, %112
  %114 = or i64 %113, %110
  br label %145

115:                                              ; preds = %17
  %116 = and i64 %.0135, %.0115134
  %.not122 = icmp eq i64 %116, 0
  br i1 %.not122, label %145, label %.preheader

.preheader:                                       ; preds = %115
  %117 = getelementptr i8, ptr %18, i64 8
  %118 = load i64, ptr %117, align 8
  %119 = and i64 %118, 4160749568
  %.not123130 = icmp eq i64 %119, 2415919104
  br i1 %.not123130, label %._crit_edge, label %.lr.ph

.lr.ph:                                           ; preds = %.preheader, %.lr.ph
  %120 = phi i64 [ %124, %.lr.ph ], [ %118, %.preheader ]
  %.0114131 = phi i64 [ %122, %.lr.ph ], [ 1, %.preheader ]
  %121 = and i64 %120, 134217727
  %122 = add i64 %121, %.0114131
  %123 = getelementptr i64, ptr %18, i64 %122
  %124 = load i64, ptr %123, align 8
  %125 = and i64 %124, 4160749568
  %.not123 = icmp eq i64 %125, 2415919104
  br i1 %.not123, label %._crit_edge, label %.lr.ph

._crit_edge:                                      ; preds = %.lr.ph, %.preheader
  %.0114.lcssa = phi i64 [ 1, %.preheader ], [ %122, %.lr.ph ]
  %126 = add nsw i64 %.0114.lcssa, 1
  %127 = shl i64 %116, %126
  %128 = or i64 %127, %.0135
  br label %145

129:                                              ; preds = %17
  %130 = and i64 %.0135, %.0115134
  %131 = shl i64 %130, 1
  %132 = or i64 %131, %.0135
  %133 = and i64 %19, 134217727
  %134 = getelementptr i64, ptr %18, i64 %133
  %135 = load i64, ptr %134, align 8
  %136 = and i64 %135, 4160749568
  %.not121 = icmp eq i64 %136, 2415919104
  br i1 %.not121, label %145, label %137

137:                                              ; preds = %129
  %138 = and i64 %132, %.0115134
  %139 = shl i64 %138, %133
  %140 = or i64 %139, %132
  br label %145

141:                                              ; preds = %17
  %142 = and i64 %.0135, %.0115134
  %143 = shl i64 %142, 1
  %144 = or i64 %143, %.0135
  br label %145

145:                                              ; preds = %69, %73, %91, %99, %103, %107, %141, %27, %23, %31, %32, %36, %37, %42, %41, %47, %46, %52, %51, %65, %57, %56, %88, %77, %._crit_edge, %115, %137, %129, %17
  %.1118 = phi i64 [ %.0117133, %17 ], [ %.0117133, %137 ], [ %.0117133, %129 ], [ %.0117133, %._crit_edge ], [ %.0117133, %115 ], [ %.0117133, %107 ], [ %.0117133, %103 ], [ %.0117133, %99 ], [ %.0117133, %91 ], [ %.0117133, %77 ], [ %89, %88 ], [ %.0117133, %73 ], [ %.0117133, %69 ], [ %.0117133, %56 ], [ %.0117133, %65 ], [ %.0117133, %57 ], [ %.0117133, %51 ], [ %.0117133, %52 ], [ %.0117133, %47 ], [ %.0117133, %46 ], [ %.0117133, %42 ], [ %.0117133, %41 ], [ %.0117133, %37 ], [ %.0117133, %36 ], [ %.0117133, %32 ], [ %.0117133, %31 ], [ %.0117133, %27 ], [ %.0117133, %23 ], [ %.0117133, %141 ]
  %.1116 = phi i64 [ %.0115134, %17 ], [ %.0115134, %137 ], [ %.0115134, %129 ], [ %.0115134, %._crit_edge ], [ %.0115134, %115 ], [ %.0115134, %107 ], [ %.0115134, %103 ], [ %.0115134, %99 ], [ %.0115134, %91 ], [ %.0115134, %77 ], [ %90, %88 ], [ %.0115134, %73 ], [ %.0115134, %69 ], [ %.0115134, %56 ], [ %.0115134, %65 ], [ %.0115134, %57 ], [ %.0115134, %51 ], [ %.0115134, %52 ], [ %.0115134, %47 ], [ %.0115134, %46 ], [ %.0115134, %42 ], [ %.0115134, %41 ], [ %.0115134, %37 ], [ %.0115134, %36 ], [ %.0115134, %32 ], [ %.0115134, %31 ], [ %.0115134, %27 ], [ %.0115134, %23 ], [ %.0115134, %141 ]
  %.1 = phi i64 [ %.0135, %17 ], [ %140, %137 ], [ %132, %129 ], [ %128, %._crit_edge ], [ %.0135, %115 ], [ %114, %107 ], [ %106, %103 ], [ %102, %99 ], [ %98, %91 ], [ %86, %77 ], [ %86, %88 ], [ %76, %73 ], [ %72, %69 ], [ %.0135, %56 ], [ %68, %65 ], [ %.0135, %57 ], [ %.0135, %51 ], [ %55, %52 ], [ %50, %47 ], [ %.0135, %46 ], [ %45, %42 ], [ %.0135, %41 ], [ %40, %37 ], [ %.0135, %36 ], [ %35, %32 ], [ %.0135, %31 ], [ %30, %27 ], [ %.0135, %23 ], [ %144, %141 ]
  %146 = add nsw i64 %.1118, 1
  %147 = shl i64 %.1116, 1
  %.not = icmp eq i64 %146, %2
  br i1 %.not, label %._crit_edge138, label %17

._crit_edge138:                                   ; preds = %145, %6
  %.0.lcssa = phi i64 [ %5, %6 ], [ %.1, %145 ]
  ret i64 %.0.lcssa
}